target datalayout = "e-m:e-p270:32:32-p271:32:32-p272:64:64-i64:64-i128:128-f80:128-n8:16:32:64-S128"
target triple = "x86_64-pc-linux-gnu"

%struct._icmpstat_t = type { ptr, ptr, i32, i32, i32, i32, double, double, double }
%struct._icmp_transaction_t = type { i32, i32, %struct.nstime_t, %struct.nstime_t }
%struct.nstime_t = type { i64, i32 }

; Function Attrs: null_pointer_is_valid sspstrong uwtable
define internal i32 @icmpstat_packet(ptr noundef %0, ptr noundef %1, ptr noundef %2, ptr noundef %3, i32 noundef %4) #0 {
  %6 = alloca i32, align 4
  %7 = alloca ptr, align 8
  %8 = alloca ptr, align 8
  %9 = alloca ptr, align 8
  %10 = alloca ptr, align 8
  %11 = alloca i32, align 4
  %12 = alloca ptr, align 8
  %13 = alloca ptr, align 8
  %14 = alloca double, align 8
  %15 = alloca ptr, align 8
  %16 = alloca i32, align 4
  %17 = alloca i64, align 8
  %18 = alloca i64, align 8
  %19 = alloca ptr, align 8
  %20 = alloca ptr, align 8
  store ptr %0, ptr %7, align 8
  store ptr %1, ptr %8, align 8
  store ptr %2, ptr %9, align 8
  store ptr %3, ptr %10, align 8
  store i32 %4, ptr %11, align 4
  call void @llvm.lifetime.start.p0(i64 8, ptr %12) #12
  %21 = load ptr, ptr %7, align 8
  store ptr %21, ptr %12, align 8
  call void @llvm.lifetime.start.p0(i64 8, ptr %13) #12
  %22 = load ptr, ptr %10, align 8
  store ptr %22, ptr %13, align 8
  call void @llvm.lifetime.start.p0(i64 8, ptr %14) #12
  call void @llvm.lifetime.start.p0(i64 8, ptr %15) #12
  %23 = load ptr, ptr %13, align 8
  %24 = icmp eq ptr %23, null
  br i1 %24, label %25, label %26

25:                                               ; preds = %5
  store i32 0, ptr %6, align 4
  store i32 1, ptr %16, align 4
  br label %129

26:                                               ; preds = %5
  %27 = load ptr, ptr %13, align 8
  %28 = getelementptr inbounds nuw %struct._icmp_transaction_t, ptr %27, i32 0, i32 1
  %29 = load i32, ptr %28, align 4
  %30 = icmp ne i32 %29, 0
  br i1 %30, label %31, label %116

31:                                               ; preds = %26
  %32 = load ptr, ptr %13, align 8
  %33 = getelementptr inbounds nuw %struct._icmp_transaction_t, ptr %32, i32 0, i32 3
  %34 = call double @nstime_to_msec(ptr noundef %33)
  store double %34, ptr %14, align 8
  call void @llvm.lifetime.start.p0(i64 8, ptr %17) #12
  store i64 1, ptr %17, align 8
  call void @llvm.lifetime.start.p0(i64 8, ptr %18) #12
  store i64 8, ptr %18, align 8
  call void @llvm.lifetime.start.p0(i64 8, ptr %19) #12
  %35 = load i64, ptr %18, align 8
  %36 = icmp eq i64 %35, 1
  br i1 %36, label %37, label %40

37:                                               ; preds = %31
  %38 = load i64, ptr %17, align 8
  %39 = call noalias ptr @g_malloc(i64 noundef %38) #14
  store ptr %39, ptr %19, align 8
  br label %61

40:                                               ; preds = %31
  %41 = load i64, ptr %17, align 8
  %42 = call i1 @llvm.is.constant.i64(i64 %41)
  br i1 %42, label %43, label %56

43:                                               ; preds = %40
  %44 = load i64, ptr %18, align 8
  %45 = icmp eq i64 %44, 0
  br i1 %45, label %51, label %46

46:                                               ; preds = %43
  %47 = load i64, ptr %17, align 8
  %48 = load i64, ptr %18, align 8
  %49 = udiv i64 -1, %48
  %50 = icmp ule i64 %47, %49
  br i1 %50, label %51, label %56

51:                                               ; preds = %46, %43
  %52 = load i64, ptr %17, align 8
  %53 = load i64, ptr %18, align 8
  %54 = mul i64 %52, %53
  %55 = call noalias ptr @g_malloc(i64 noundef %54) #14
  store ptr %55, ptr %19, align 8
  br label %60

56:                                               ; preds = %46, %40
  %57 = load i64, ptr %17, align 8
  %58 = load i64, ptr %18, align 8
  %59 = call noalias ptr @g_malloc_n(i64 noundef %57, i64 noundef %58) #16
  store ptr %59, ptr %19, align 8
  br label %60

60:                                               ; preds = %56, %51
  br label %61

61:                                               ; preds = %60, %37
  %62 = load ptr, ptr %19, align 8
  store ptr %62, ptr %20, align 8
  call void @llvm.lifetime.end.p0(i64 8, ptr %19) #12
  call void @llvm.lifetime.end.p0(i64 8, ptr %18) #12
  call void @llvm.lifetime.end.p0(i64 8, ptr %17) #12
  %63 = load ptr, ptr %20, align 8
  store ptr %63, ptr %15, align 8
  %64 = load ptr, ptr %15, align 8
  %65 = icmp eq ptr %64, null
  br i1 %65, label %66, label %67

66:                                               ; preds = %61
  store i32 0, ptr %6, align 4
  store i32 1, ptr %16, align 4
  br label %129

67:                                               ; preds = %61
  %68 = load double, ptr %14, align 8
  %69 = load ptr, ptr %15, align 8
  store double %68, ptr %69, align 8
  %70 = load ptr, ptr %12, align 8
  %71 = getelementptr inbounds nuw %struct._icmpstat_t, ptr %70, i32 0, i32 1
  %72 = load ptr, ptr %71, align 8
  %73 = load ptr, ptr %15, align 8
  %74 = call ptr @g_slist_prepend(ptr noundef %72, ptr noundef %73)
  %75 = load ptr, ptr %12, align 8
  %76 = getelementptr inbounds nuw %struct._icmpstat_t, ptr %75, i32 0, i32 1
  store ptr %74, ptr %76, align 8
  %77 = load ptr, ptr %12, align 8
  %78 = getelementptr inbounds nuw %struct._icmpstat_t, ptr %77, i32 0, i32 3
  %79 = load i32, ptr %78, align 4
  %80 = add i32 %79, 1
  store i32 %80, ptr %78, align 4
  %81 = load ptr, ptr %12, align 8
  %82 = getelementptr inbounds nuw %struct._icmpstat_t, ptr %81, i32 0, i32 6
  %83 = load double, ptr %82, align 8
  %84 = load double, ptr %14, align 8
  %85 = fcmp ogt double %83, %84
  br i1 %85, label %86, label %95

86:                                               ; preds = %67
  %87 = load ptr, ptr %13, align 8
  %88 = getelementptr inbounds nuw %struct._icmp_transaction_t, ptr %87, i32 0, i32 1
  %89 = load i32, ptr %88, align 4
  %90 = load ptr, ptr %12, align 8
  %91 = getelementptr inbounds nuw %struct._icmpstat_t, ptr %90, i32 0, i32 4
  store i32 %89, ptr %91, align 8
  %92 = load double, ptr %14, align 8
  %93 = load ptr, ptr %12, align 8
  %94 = getelementptr inbounds nuw %struct._icmpstat_t, ptr %93, i32 0, i32 6
  store double %92, ptr %94, align 8
  br label %95

95:                                               ; preds = %86, %67
  %96 = load ptr, ptr %12, align 8
  %97 = getelementptr inbounds nuw %struct._icmpstat_t, ptr %96, i32 0, i32 7
  %98 = load double, ptr %97, align 8
  %99 = load double, ptr %14, align 8
  %100 = fcmp olt double %98, %99
  br i1 %100, label %101, label %110

101:                                              ; preds = %95
  %102 = load ptr, ptr %13, align 8
  %103 = getelementptr inbounds nuw %struct._icmp_transaction_t, ptr %102, i32 0, i32 1
  %104 = load i32, ptr %103, align 4
  %105 = load ptr, ptr %12, align 8
  %106 = getelementptr inbounds nuw %struct._icmpstat_t, ptr %105, i32 0, i32 5
  store i32 %104, ptr %106, align 4
  %107 = load double, ptr %14, align 8
  %108 = load ptr, ptr %12, align 8
  %109 = getelementptr inbounds nuw %struct._icmpstat_t, ptr %108, i32 0, i32 7
  store double %107, ptr %109, align 8
  br label %110

110:                                              ; preds = %101, %95
  %111 = load double, ptr %14, align 8
  %112 = load ptr, ptr %12, align 8
  %113 = getelementptr inbounds nuw %struct._icmpstat_t, ptr %112, i32 0, i32 8
  %114 = load double, ptr %113, align 8
  %115 = fadd double %114, %111
  store double %115, ptr %113, align 8
  br label %128

116:                                              ; preds = %26
  %117 = load ptr, ptr %13, align 8
  %118 = getelementptr inbounds nuw %struct._icmp_transaction_t, ptr %117, i32 0, i32 0
  %119 = load i32, ptr %118, align 8
  %120 = icmp ne i32 %119, 0
  br i1 %120, label %121, label %126

121:                                              ; preds = %116
  %122 = load ptr, ptr %12, align 8
  %123 = getelementptr inbounds nuw %struct._icmpstat_t, ptr %122, i32 0, i32 2
  %124 = load i32, ptr %123, align 8
  %125 = add i32 %124, 1
  store i32 %125, ptr %123, align 8
  br label %127

126:                                              ; preds = %116
  store i32 0, ptr %6, align 4
  store i32 1, ptr %16, align 4
  br label %129

127:                                              ; preds = %121
  br label %128

128:                                              ; preds = %127, %110
  store i32 1, ptr %6, align 4
  store i32 1, ptr %16, align 4
  br label %129

129:                                              ; preds = %128, %126, %66, %25
  call void @llvm.lifetime.end.p0(i64 8, ptr %15) #12
  call void @llvm.lifetime.end.p0(i64 8, ptr %14) #12
  call void @llvm.lifetime.end.p0(i64 8, ptr %13) #12
  call void @llvm.lifetime.end.p0(i64 8, ptr %12) #12
  %130 = load i32, ptr %6, align 4
  ret i32 %130
}