; Function Attrs: null_pointer_is_valid sspstrong uwtable
define internal range(i32 0, 2) i32 @icmpstat_packet(ptr noundef captures(none) %0, ptr readnone captures(none) %1, ptr readnone captures(none) %2, ptr noundef %3, i32 %4) #0 {
  %6 = icmp eq ptr %3, null
  br i1 %6, label %45, label %7

7:                                                ; preds = %5
  %8 = getelementptr inbounds nuw i8, ptr %3, i64 4
  %9 = load i32, ptr %8, align 4
  %.not = icmp eq i32 %9, 0
  br i1 %.not, label %39, label %10

10:                                               ; preds = %7
  %11 = getelementptr inbounds nuw i8, ptr %3, i64 24
  %12 = tail call double @nstime_to_msec(ptr noundef nonnull %11)
  %13 = tail call noalias dereferenceable_or_null(8) ptr @g_malloc(i64 noundef 8) #10
  %14 = icmp eq ptr %13, null
  br i1 %14, label %45, label %15

15:                                               ; preds = %10
  store double %12, ptr %13, align 8
  %16 = getelementptr inbounds nuw i8, ptr %0, i64 8
  %17 = load ptr, ptr %16, align 8
  %18 = tail call ptr @g_slist_prepend(ptr noundef %17, ptr noundef nonnull %13)
  store ptr %18, ptr %16, align 8
  %19 = getelementptr inbounds nuw i8, ptr %0, i64 20
  %20 = load i32, ptr %19, align 4
  %21 = add i32 %20, 1
  store i32 %21, ptr %19, align 4
  %22 = getelementptr inbounds nuw i8, ptr %0, i64 32
  %23 = load double, ptr %22, align 8
  %24 = fcmp ogt double %23, %12
  br i1 %24, label %25, label %28

25:                                               ; preds = %15
  %26 = load i32, ptr %8, align 4
  %27 = getelementptr inbounds nuw i8, ptr %0, i64 24
  store i32 %26, ptr %27, align 8
  store double %12, ptr %22, align 8
  br label %28

28:                                               ; preds = %25, %15
  %29 = getelementptr inbounds nuw i8, ptr %0, i64 40
  %30 = load double, ptr %29, align 8
  %31 = fcmp olt double %30, %12
  br i1 %31, label %32, label %35

32:                                               ; preds = %28
  %33 = load i32, ptr %8, align 4
  %34 = getelementptr inbounds nuw i8, ptr %0, i64 28
  store i32 %33, ptr %34, align 4
  store double %12, ptr %29, align 8
  br label %35

35:                                               ; preds = %32, %28
  %36 = getelementptr inbounds nuw i8, ptr %0, i64 48
  %37 = load double, ptr %36, align 8
  %38 = fadd double %12, %37
  store double %38, ptr %36, align 8
  br label %45

39:                                               ; preds = %7
  %40 = load i32, ptr %3, align 8
  %.not43 = icmp eq i32 %40, 0
  br i1 %.not43, label %45, label %41

41:                                               ; preds = %39
  %42 = getelementptr inbounds nuw i8, ptr %0, i64 16
  %43 = load i32, ptr %42, align 8
  %44 = add i32 %43, 1
  store i32 %44, ptr %42, align 8
  br label %45

45:                                               ; preds = %35, %41, %39, %10, %5
  %.0 = phi i32 [ 0, %5 ], [ 0, %10 ], [ 0, %39 ], [ 1, %41 ], [ 1, %35 ]
  ret i32 %.0
}